target datalayout = "e-m:e-p270:32:32-p271:32:32-p272:64:64-i64:64-i128:128-f80:128-n8:16:32:64-S128"
target triple = "x86_64-pc-linux-gnu"

%"class.rocksdb::PlainTableIndexBuilder::IndexRecordList" = type { i64, ptr, %"class.std::vector", i64 }
%"class.std::vector" = type { %"struct.std::_Vector_base" }
%"struct.std::_Vector_base" = type { %"struct.std::_Vector_base<rocksdb::PlainTableIndexBuilder::IndexRecord *, std::allocator<rocksdb::PlainTableIndexBuilder::IndexRecord *>>::_Vector_impl" }
%"struct.std::_Vector_base<rocksdb::PlainTableIndexBuilder::IndexRecord *, std::allocator<rocksdb::PlainTableIndexBuilder::IndexRecord *>>::_Vector_impl" = type { %"struct.std::_Vector_base<rocksdb::PlainTableIndexBuilder::IndexRecord *, std::allocator<rocksdb::PlainTableIndexBuilder::IndexRecord *>>::_Vector_impl_data" }
%"struct.std::_Vector_base<rocksdb::PlainTableIndexBuilder::IndexRecord *, std::allocator<rocksdb::PlainTableIndexBuilder::IndexRecord *>>::_Vector_impl_data" = type { ptr, ptr, ptr }
%"struct.rocksdb::PlainTableIndexBuilder::IndexRecord" = type { i32, i32, ptr }

; Function Attrs: mustprogress uwtable
define void @_ZN7rocksdb22PlainTableIndexBuilder15IndexRecordList9AddRecordEjj(ptr noundef nonnull align 8 dereferenceable(48) %0, i32 noundef %1, i32 noundef %2) #4 align 2 {
  %4 = alloca ptr, align 8
  %5 = alloca i32, align 4
  %6 = alloca i32, align 4
  %7 = alloca ptr, align 8
  store ptr %0, ptr %4, align 8, !tbaa !30
  store i32 %1, ptr %5, align 4, !tbaa !29
  store i32 %2, ptr %6, align 4, !tbaa !29
  %8 = load ptr, ptr %4, align 8
  %9 = getelementptr inbounds nuw %"class.rocksdb::PlainTableIndexBuilder::IndexRecordList", ptr %8, i32 0, i32 3
  %10 = load i64, ptr %9, align 8, !tbaa !32
  %11 = getelementptr inbounds nuw %"class.rocksdb::PlainTableIndexBuilder::IndexRecordList", ptr %8, i32 0, i32 0
  %12 = load i64, ptr %11, align 8, !tbaa !41
  %13 = icmp eq i64 %10, %12
  br i1 %13, label %14, label %18

14:                                               ; preds = %3
  %15 = call noundef ptr @_ZN7rocksdb22PlainTableIndexBuilder15IndexRecordList16AllocateNewGroupEv(ptr noundef nonnull align 8 dereferenceable(48) %8)
  %16 = getelementptr inbounds nuw %"class.rocksdb::PlainTableIndexBuilder::IndexRecordList", ptr %8, i32 0, i32 1
  store ptr %15, ptr %16, align 8, !tbaa !42
  %17 = getelementptr inbounds nuw %"class.rocksdb::PlainTableIndexBuilder::IndexRecordList", ptr %8, i32 0, i32 3
  store i64 0, ptr %17, align 8, !tbaa !32
  br label %18

18:                                               ; preds = %14, %3
  call void @llvm.lifetime.start.p0(i64 8, ptr %7) #7
  %19 = getelementptr inbounds nuw %"class.rocksdb::PlainTableIndexBuilder::IndexRecordList", ptr %8, i32 0, i32 1
  %20 = load ptr, ptr %19, align 8, !tbaa !42
  %21 = getelementptr inbounds nuw %"class.rocksdb::PlainTableIndexBuilder::IndexRecordList", ptr %8, i32 0, i32 3
  %22 = load i64, ptr %21, align 8, !tbaa !32
  %23 = add i64 %22, 1
  store i64 %23, ptr %21, align 8, !tbaa !32
  %24 = getelementptr inbounds nuw %"struct.rocksdb::PlainTableIndexBuilder::IndexRecord", ptr %20, i64 %22
  store ptr %24, ptr %7, align 8, !tbaa !43
  %25 = load i32, ptr %5, align 4, !tbaa !29
  %26 = load ptr, ptr %7, align 8, !tbaa !43
  %27 = getelementptr inbounds nuw %"struct.rocksdb::PlainTableIndexBuilder::IndexRecord", ptr %26, i32 0, i32 0
  store i32 %25, ptr %27, align 8, !tbaa !44
  %28 = load i32, ptr %6, align 4, !tbaa !29
  %29 = load ptr, ptr %7, align 8, !tbaa !43
  %30 = getelementptr inbounds nuw %"struct.rocksdb::PlainTableIndexBuilder::IndexRecord", ptr %29, i32 0, i32 1
  store i32 %28, ptr %30, align 4, !tbaa !46
  %31 = load ptr, ptr %7, align 8, !tbaa !43
  %32 = getelementptr inbounds nuw %"struct.rocksdb::PlainTableIndexBuilder::IndexRecord", ptr %31, i32 0, i32 2
  store ptr null, ptr %32, align 8, !tbaa !47
  call void @llvm.lifetime.end.p0(i64 8, ptr %7) #7
  ret void
}