; Function Attrs: mustprogress uwtable
define void @_ZN7rocksdb22PlainTableIndexBuilder15IndexRecordList9AddRecordEjj(ptr noundef nonnull align 8 dereferenceable(48) %0, i32 noundef %1, i32 noundef %2) local_unnamed_addr #1 align 2 {
  %4 = getelementptr inbounds nuw i8, ptr %0, i64 40
  %5 = load i64, ptr %4, align 8, !tbaa !26
  %6 = load i64, ptr %0, align 8, !tbaa !35
  %7 = icmp eq i64 %5, %6
  br i1 %7, label %8, label %._crit_edge

._crit_edge:                                      ; preds = %3
  %.phi.trans.insert = getelementptr inbounds nuw i8, ptr %0, i64 8
  %.pre = load ptr, ptr %.phi.trans.insert, align 8, !tbaa !36
  br label %11

8:                                                ; preds = %3
  %9 = tail call noundef ptr @_ZN7rocksdb22PlainTableIndexBuilder15IndexRecordList16AllocateNewGroupEv(ptr noundef nonnull align 8 dereferenceable(48) %0)
  %10 = getelementptr inbounds nuw i8, ptr %0, i64 8
  store ptr %9, ptr %10, align 8, !tbaa !36
  br label %11

11:                                               ; preds = %._crit_edge, %8
  %12 = phi i64 [ %5, %._crit_edge ], [ 0, %8 ]
  %13 = phi ptr [ %.pre, %._crit_edge ], [ %9, %8 ]
  %14 = add i64 %12, 1
  store i64 %14, ptr %4, align 8, !tbaa !26
  %15 = getelementptr inbounds nuw %"struct.rocksdb::PlainTableIndexBuilder::IndexRecord", ptr %13, i64 %12
  store i32 %1, ptr %15, align 8, !tbaa !37
  %16 = getelementptr inbounds nuw i8, ptr %15, i64 4
  store i32 %2, ptr %16, align 4, !tbaa !39
  %17 = getelementptr inbounds nuw i8, ptr %15, i64 8
  store ptr null, ptr %17, align 8, !tbaa !40
  ret void
}